target datalayout = "e-m:e-p270:32:32-p271:32:32-p272:64:64-i64:64-i128:128-f80:128-n8:16:32:64-S128"
target triple = "x86_64-pc-linux-gnu"

%"class.std::__cxx11::basic_string" = type { %"struct.std::__cxx11::basic_string<char>::_Alloc_hider", i64, %union.anon }
%"struct.std::__cxx11::basic_string<char>::_Alloc_hider" = type { ptr }
%union.anon = type { i64, [8 x i8] }
%"class.open3d::visualization::glsl::ShaderWrapper" = type { ptr, i32, i32, i32, i32, i32, i32, i8, i8, %"class.std::__cxx11::basic_string" }

; Function Attrs: mustprogress ssp uwtable
define hidden void @_ZN6open3d13visualization4glsl13ShaderWrapper18InvalidateGeometryEv(ptr noundef nonnull align 8 dereferenceable(72) %0) #3 align 2 {
  %2 = alloca ptr, align 8
  store ptr %0, ptr %2, align 8, !tbaa !148
  %3 = load ptr, ptr %2, align 8
  %4 = getelementptr inbounds nuw %"class.open3d::visualization::glsl::ShaderWrapper", ptr %3, i32 0, i32 8
  %5 = load i8, ptr %4, align 1, !tbaa !163, !range !116, !noundef !117
  %6 = trunc i8 %5 to i1
  br i1 %6, label %7, label %11

7:                                                ; preds = %1
  %8 = load ptr, ptr %3, align 8, !tbaa !161
  %9 = getelementptr inbounds ptr, ptr %8, i64 6
  %10 = load ptr, ptr %9, align 8
  call void %10(ptr noundef nonnull align 8 dereferenceable(72) %3)
  br label %11

11:                                               ; preds = %7, %1
  ret void
}