; Function Attrs: mustprogress ssp uwtable
define hidden void @_ZN6open3d13visualization4glsl13ShaderWrapper18InvalidateGeometryEv(ptr noundef nonnull align 8 dereferenceable(72) %0) local_unnamed_addr #4 align 2 {
  %2 = getelementptr inbounds nuw i8, ptr %0, i64 33
  %3 = load i8, ptr %2, align 1, !tbaa !48, !range !44, !noundef !45
  %4 = trunc nuw i8 %3 to i1
  br i1 %4, label %5, label %9

5:                                                ; preds = %1
  %6 = load ptr, ptr %0, align 8, !tbaa !46
  %7 = getelementptr inbounds nuw i8, ptr %6, i64 48
  %8 = load ptr, ptr %7, align 8
  tail call void %8(ptr noundef nonnull align 8 dereferenceable(72) %0)
  br label %9

9:                                                ; preds = %5, %1
  ret void
}